; Function Attrs: nounwind uwtable
define internal range(i32 -1, 2) i32 @IDASpgmrSetup(ptr noundef %0, ptr noundef %1, ptr noundef %2, ptr noundef %3, ptr noundef %4, ptr noundef %5, ptr noundef %6) #0 {
  %8 = getelementptr inbounds nuw i8, ptr %0, i64 1632
  %9 = load ptr, ptr %8, align 8, !tbaa !44
  %10 = getelementptr inbounds nuw i8, ptr %9, i64 208
  %11 = load ptr, ptr %10, align 8, !tbaa !46
  %12 = getelementptr inbounds nuw i8, ptr %0, i64 1184
  %13 = load double, ptr %12, align 8, !tbaa !49
  %14 = getelementptr inbounds nuw i8, ptr %0, i64 1200
  %15 = load double, ptr %14, align 8, !tbaa !50
  %16 = getelementptr inbounds nuw i8, ptr %9, i64 232
  %17 = load ptr, ptr %16, align 8, !tbaa !32
  %18 = tail call i32 %11(double noundef %13, ptr noundef %1, ptr noundef %2, ptr noundef %3, double noundef %15, ptr noundef %17, ptr noundef %4, ptr noundef %5, ptr noundef %6) #8
  %19 = getelementptr inbounds nuw i8, ptr %9, i64 48
  %20 = load i64, ptr %19, align 8, !tbaa !51
  %21 = add nsw i64 %20, 1
  store i64 %21, ptr %19, align 8, !tbaa !51
  %22 = icmp slt i32 %18, 0
  br i1 %22, label %23, label %24

23:                                               ; preds = %7
  tail call void (ptr, i32, ptr, ptr, ptr, ...) @IDAProcessError(ptr noundef nonnull %0, i32 noundef -6, ptr noundef nonnull @.str, ptr noundef nonnull @.str.9, ptr noundef nonnull @.str.10) #8
  br label %25

24:                                               ; preds = %7
  %.not = icmp ne i32 %18, 0
  %. = select i1 %.not, i64 6, i64 0
  %.19 = zext i1 %.not to i32
  br label %25

25:                                               ; preds = %24, %23
  %.sink = phi i64 [ -6, %23 ], [ %., %24 ]
  %.0 = phi i32 [ -1, %23 ], [ %.19, %24 ]
  %26 = getelementptr inbounds nuw i8, ptr %9, i64 200
  store i64 %.sink, ptr %26, align 8, !tbaa !37
  ret i32 %.0
}